; Function Attrs: null_pointer_is_valid sspstrong uwtable
define void @prefs_register_range_preference(ptr noundef captures(address_is_null) %0, ptr noundef %1, ptr noundef %2, ptr noundef %3, ptr noundef %4, i32 noundef %5) local_unnamed_addr #1 {
  %7 = tail call fastcc ptr @register_preference(ptr noundef %0, ptr noundef %1, ptr noundef %2, ptr noundef %3, i32 noundef 16)
  %8 = getelementptr inbounds nuw i8, ptr %7, i64 64
  store i32 %5, ptr %8, align 8
  %9 = load ptr, ptr %4, align 8
  %10 = icmp eq ptr %9, null
  br i1 %10, label %11, label %prefs_register_range_preference_common.exit

11:                                               ; preds = %6
  %12 = tail call ptr @wmem_epan_scope()
  %13 = tail call ptr @range_empty(ptr noundef %12)
  store ptr %13, ptr %4, align 8
  br label %prefs_register_range_preference_common.exit

prefs_register_range_preference_common.exit:      ; preds = %6, %11
  %14 = getelementptr inbounds nuw i8, ptr %7, i64 40
  store ptr %4, ptr %14, align 8
  %15 = tail call ptr @wmem_epan_scope()
  %16 = load ptr, ptr %4, align 8
  %17 = tail call ptr @range_copy(ptr noundef %15, ptr noundef %16)
  %18 = getelementptr inbounds nuw i8, ptr %7, i64 56
  store ptr %17, ptr %18, align 8
  %19 = getelementptr inbounds nuw i8, ptr %7, i64 48
  store ptr null, ptr %19, align 8
  ret void
}